; Function Attrs: mustprogress nounwind uwtable
define dso_local noundef nonnull ptr @_ZN4llvm27createCFGSimplificationPassENS_18SimplifyCFGOptionsESt8functionIFbRKNS_8FunctionEEE(ptr noundef readonly byval(%"struct.llvm::SimplifyCFGOptions") align 8 captures(none) %0, ptr noundef captures(none) %1) local_unnamed_addr #0 {
  %3 = alloca %"class.std::function.64", align 8
  %4 = tail call noalias noundef nonnull dereferenceable(88) ptr @_Znwm(i64 noundef 88) #23
  %5 = getelementptr inbounds nuw i8, ptr %3, i64 24
  %6 = getelementptr inbounds nuw i8, ptr %1, i64 24
  call void @llvm.memset.p0.i64(ptr noundef nonnull align 8 dereferenceable(32) %3, i8 0, i64 24, i1 false)
  %7 = load ptr, ptr %6, align 8
  store ptr %7, ptr %5, align 8
  %8 = getelementptr inbounds nuw i8, ptr %1, i64 16
  %9 = load ptr, ptr %8, align 8
  %.not.i.i.not.i = icmp eq ptr %9, null
  br i1 %.not.i.i.not.i, label %_ZNSt8functionIFbRKN4llvm8FunctionEEEC2EOS5_.exit, label %10

10:                                               ; preds = %2
  %11 = getelementptr inbounds nuw i8, ptr %3, i64 16
  call void @llvm.memcpy.p0.p0.i64(ptr noundef nonnull align 8 dereferenceable(32) %3, ptr noundef nonnull align 8 dereferenceable(32) %1, i64 16, i1 false)
  store ptr %9, ptr %11, align 8
  tail call void @llvm.memset.p0.i64(ptr noundef nonnull align 8 dereferenceable(16) %8, i8 0, i64 16, i1 false)
  br label %_ZNSt8functionIFbRKN4llvm8FunctionEEEC2EOS5_.exit

_ZNSt8functionIFbRKN4llvm8FunctionEEEC2EOS5_.exit: ; preds = %2, %10
  call fastcc void @_ZN12_GLOBAL__N_115CFGSimplifyPassC2EN4llvm18SimplifyCFGOptionsESt8functionIFbRKNS1_8FunctionEEE(ptr noundef nonnull align 8 dereferenceable(88) %4, ptr noundef nonnull byval(%"struct.llvm::SimplifyCFGOptions") align 8 %0, ptr noundef %3)
  %12 = getelementptr inbounds nuw i8, ptr %3, i64 16
  %13 = load ptr, ptr %12, align 8
  %.not.i.i = icmp eq ptr %13, null
  br i1 %.not.i.i, label %_ZNSt8functionIFbRKN4llvm8FunctionEEED2Ev.exit, label %14

14:                                               ; preds = %_ZNSt8functionIFbRKN4llvm8FunctionEEEC2EOS5_.exit
  %15 = call noundef zeroext i1 %13(ptr noundef nonnull align 8 dereferenceable(32) %3, ptr noundef nonnull align 8 dereferenceable(32) %3, i32 noundef 3) #20
  br label %_ZNSt8functionIFbRKN4llvm8FunctionEEED2Ev.exit

_ZNSt8functionIFbRKN4llvm8FunctionEEED2Ev.exit:   ; preds = %_ZNSt8functionIFbRKN4llvm8FunctionEEEC2EOS5_.exit, %14
  ret ptr %4
}